; Function Attrs: nounwind uwtable
define dso_local ptr @PyObject_CallObject(ptr noundef %0, ptr noundef %1) local_unnamed_addr #0 {
  %3 = tail call align 8 ptr @llvm.threadlocal.address.p0(ptr align 8 @_Py_tss_tstate)
  %4 = load ptr, ptr %3, align 8, !tbaa !25
  %5 = icmp eq ptr %1, null
  br i1 %5, label %6, label %8

6:                                                ; preds = %2
  %7 = tail call fastcc ptr @_PyObject_CallNoArgsTstate(ptr noundef %4, ptr noundef %0)
  br label %16

8:                                                ; preds = %2
  %9 = getelementptr i8, ptr %1, i64 8
  %.val = load ptr, ptr %9, align 8, !tbaa !20
  %10 = getelementptr i8, ptr %.val, i64 168
  %.val10 = load i64, ptr %10, align 8, !tbaa !34
  %11 = and i64 %.val10, 67108864
  %.not = icmp eq i64 %11, 0
  br i1 %.not, label %12, label %14

12:                                               ; preds = %8
  %13 = load ptr, ptr @PyExc_TypeError, align 8, !tbaa !23
  tail call void @_PyErr_SetString(ptr noundef %4, ptr noundef %13, ptr noundef nonnull @.str.8) #10
  br label %16

14:                                               ; preds = %8
  %15 = tail call ptr @_PyObject_Call(ptr noundef %4, ptr noundef %0, ptr noundef nonnull %1, ptr noundef null)
  br label %16

16:                                               ; preds = %14, %12, %6
  %.0 = phi ptr [ %7, %6 ], [ %15, %14 ], [ null, %12 ]
  ret ptr %.0
}